target datalayout = "e-m:e-p270:32:32-p271:32:32-p272:64:64-i64:64-i128:128-f80:128-n8:16:32:64-S128"
target triple = "x86_64-pc-linux-gnu"

%struct.RelationData = type { %struct.RelFileLocator, ptr, i32, i32, i8, i8, i8, i8, i8, i32, i32, i32, i32, ptr, ptr, i32, %struct.LockInfoData, ptr, ptr, ptr, ptr, ptr, i8, ptr, ptr, ptr, ptr, ptr, ptr, i32, ptr, i8, ptr, ptr, i32, i8, i32, ptr, i8, ptr, ptr, ptr, ptr, ptr, ptr, ptr, i32, ptr, ptr, ptr, ptr, ptr, ptr, ptr, ptr, ptr, ptr, ptr, ptr, ptr, ptr, ptr, ptr, ptr, ptr, ptr, i32, i8, ptr }
%struct.RelFileLocator = type { i32, i32, i32 }
%struct.LockInfoData = type { %struct.LockRelId }
%struct.LockRelId = type { i32, i32 }
%struct.FormData_pg_class = type { i32, %struct.nameData, i32, i32, i32, i32, i32, i32, i32, i32, float, i32, i32, i8, i8, i8, i8, i16, i16, i8, i8, i8, i8, i8, i8, i8, i8, i32, i32, i32 }
%struct.nameData = type { [64 x i8] }
%struct.HeapTupleData = type { i32, %struct.ItemPointerData, i32, ptr }
%struct.ItemPointerData = type { %struct.BlockIdData, i16 }
%struct.BlockIdData = type { i16, i16 }
%struct.HeapTupleHeaderData = type { %union.anon.13, %struct.ItemPointerData, i16, i16, i8, [0 x i8] }
%union.anon.13 = type { %struct.HeapTupleFields }
%struct.HeapTupleFields = type { i32, i32, %union.anon.14 }
%union.anon.14 = type { i32 }
%struct.ScanKeyData = type { i32, i16, i16, i32, i32, %struct.FmgrInfo, i64 }
%struct.FmgrInfo = type { ptr, i32, i16, i8, i8, i8, ptr, ptr, ptr }

@.str.1 = private unnamed_addr constant [8 x i8] c"index.c\00", align 1
@IsBinaryUpgrade = external global i8, align 1
@.str.22 = private unnamed_addr constant [37 x i8] c"could not find tuple for relation %u\00", align 1
@__func__.index_update_stats = private unnamed_addr constant [19 x i8] c"index_update_stats\00", align 1

; Function Attrs: inlinehint nounwind uwtable
define internal ptr @GETSTRUCT(ptr noundef %0) #4 {
  %2 = alloca ptr, align 8
  store ptr %0, ptr %2, align 8
  %3 = load ptr, ptr %2, align 8
  %4 = getelementptr inbounds nuw %struct.HeapTupleData, ptr %3, i32 0, i32 3
  %5 = load ptr, ptr %4, align 8
  %6 = load ptr, ptr %2, align 8
  %7 = getelementptr inbounds nuw %struct.HeapTupleData, ptr %6, i32 0, i32 3
  %8 = load ptr, ptr %7, align 8
  %9 = getelementptr inbounds nuw %struct.HeapTupleHeaderData, ptr %8, i32 0, i32 4
  %10 = load i8, ptr %9, align 2
  %11 = zext i8 %10 to i32
  %12 = sext i32 %11 to i64
  %13 = getelementptr inbounds i8, ptr %5, i64 %12
  ret ptr %13
}

; Function Attrs: inlinehint nounwind uwtable
define internal i64 @ObjectIdGetDatum(i32 noundef %0) #4 {
  %2 = alloca i32, align 4
  store i32 %0, ptr %2, align 4
  %3 = load i32, ptr %2, align 4
  %4 = zext i32 %3 to i64
  ret i64 %4
}

; Function Attrs: nounwind uwtable
define internal void @index_update_stats(ptr noundef %0, i1 noundef zeroext %1, double noundef %2) #0 {
  %4 = alloca ptr, align 8
  %5 = alloca i8, align 1
  %6 = alloca double, align 8
  %7 = alloca i8, align 1
  %8 = alloca i32, align 4
  %9 = alloca i32, align 4
  %10 = alloca i32, align 4
  %11 = alloca ptr, align 8
  %12 = alloca [1 x %struct.ScanKeyData], align 16
  %13 = alloca ptr, align 8
  %14 = alloca ptr, align 8
  %15 = alloca ptr, align 8
  %16 = alloca i8, align 1
  store ptr %0, ptr %4, align 8
  %17 = zext i1 %1 to i8
  store i8 %17, ptr %5, align 1
  store double %2, ptr %6, align 8
  call void @llvm.lifetime.start.p0(i64 1, ptr %7) #8
  call void @llvm.lifetime.start.p0(i64 4, ptr %8) #8
  store i32 0, ptr %8, align 4
  call void @llvm.lifetime.start.p0(i64 4, ptr %9) #8
  store i32 0, ptr %9, align 4
  call void @llvm.lifetime.start.p0(i64 4, ptr %10) #8
  %18 = load ptr, ptr %4, align 8
  %19 = getelementptr inbounds nuw %struct.RelationData, ptr %18, i32 0, i32 15
  %20 = load i32, ptr %19, align 8
  store i32 %20, ptr %10, align 4
  call void @llvm.lifetime.start.p0(i64 8, ptr %11) #8
  call void @llvm.lifetime.start.p0(i64 72, ptr %12) #8
  call void @llvm.lifetime.start.p0(i64 8, ptr %13) #8
  call void @llvm.lifetime.start.p0(i64 8, ptr %14) #8
  call void @llvm.lifetime.start.p0(i64 8, ptr %15) #8
  call void @llvm.lifetime.start.p0(i64 1, ptr %16) #8
  %21 = load double, ptr %6, align 8
  %22 = fcmp oeq double %21, 0.000000e+00
  br i1 %22, label %23, label %31

23:                                               ; preds = %3
  %24 = load ptr, ptr %4, align 8
  %25 = getelementptr inbounds nuw %struct.RelationData, ptr %24, i32 0, i32 13
  %26 = load ptr, ptr %25, align 8
  %27 = getelementptr inbounds nuw %struct.FormData_pg_class, ptr %26, i32 0, i32 10
  %28 = load float, ptr %27, align 4
  %29 = fcmp olt float %28, 0.000000e+00
  br i1 %29, label %30, label %31

30:                                               ; preds = %23
  store double -1.000000e+00, ptr %6, align 8
  br label %31

31:                                               ; preds = %30, %23, %3
  %32 = load double, ptr %6, align 8
  %33 = fcmp oge double %32, 0.000000e+00
  br i1 %33, label %34, label %38

34:                                               ; preds = %31
  %35 = load i8, ptr @IsBinaryUpgrade, align 1, !range !4, !noundef !5
  %36 = trunc i8 %35 to i1
  %37 = xor i1 %36, true
  br label %38

38:                                               ; preds = %34, %31
  %39 = phi i1 [ false, %31 ], [ %37, %34 ]
  %40 = zext i1 %39 to i8
  store i8 %40, ptr %7, align 1
  %41 = load i8, ptr %7, align 1, !range !4, !noundef !5
  %42 = trunc i8 %41 to i1
  br i1 %42, label %43, label %56

43:                                               ; preds = %38
  %44 = load ptr, ptr %4, align 8
  %45 = call i32 @RelationGetNumberOfBlocksInFork(ptr noundef %44, i32 noundef 0)
  store i32 %45, ptr %8, align 4
  %46 = load ptr, ptr %4, align 8
  %47 = getelementptr inbounds nuw %struct.RelationData, ptr %46, i32 0, i32 13
  %48 = load ptr, ptr %47, align 8
  %49 = getelementptr inbounds nuw %struct.FormData_pg_class, ptr %48, i32 0, i32 16
  %50 = load i8, ptr %49, align 1
  %51 = sext i8 %50 to i32
  %52 = icmp ne i32 %51, 105
  br i1 %52, label %53, label %55

53:                                               ; preds = %43
  %54 = load ptr, ptr %4, align 8
  call void @visibilitymap_count(ptr noundef %54, ptr noundef %9, ptr noundef null)
  br label %55

55:                                               ; preds = %53, %43
  br label %56

56:                                               ; preds = %55, %38
  %57 = call ptr @table_open(i32 noundef 1259, i32 noundef 3)
  store ptr %57, ptr %11, align 8
  %58 = getelementptr inbounds [1 x %struct.ScanKeyData], ptr %12, i64 0, i64 0
  %59 = load i32, ptr %10, align 4
  %60 = call i64 @ObjectIdGetDatum(i32 noundef %59)
  call void @ScanKeyInit(ptr noundef %58, i16 noundef signext 1, i16 noundef zeroext 3, i32 noundef 184, i64 noundef %60)
  %61 = load ptr, ptr %11, align 8
  %62 = getelementptr inbounds [1 x %struct.ScanKeyData], ptr %12, i64 0, i64 0
  call void @systable_inplace_update_begin(ptr noundef %61, i32 noundef 2662, i1 noundef zeroext true, ptr noundef null, i32 noundef 1, ptr noundef %62, ptr noundef %13, ptr noundef %14)
  %63 = load ptr, ptr %13, align 8
  %64 = icmp ne ptr %63, null
  br i1 %64, label %77, label %65

65:                                               ; preds = %56
  br label %66

66:                                               ; preds = %65
  br i1 true, label %67, label %69

67:                                               ; preds = %66
  %68 = call zeroext i1 @errstart_cold(i32 noundef 21, ptr noundef null) #9
  br i1 %68, label %71, label %74

69:                                               ; preds = %66
  %70 = call zeroext i1 @errstart(i32 noundef 21, ptr noundef null)
  br i1 %70, label %71, label %74

71:                                               ; preds = %69, %67
  %72 = load i32, ptr %10, align 4
  %73 = call i32 (ptr, ...) @errmsg_internal(ptr noundef @.str.22, i32 noundef %72)
  call void @errfinish(ptr noundef @.str.1, i32 noundef 2896, ptr noundef @__func__.index_update_stats)
  br label %74

74:                                               ; preds = %71, %69, %67
  unreachable

75:                                               ; No predecessors!
  br label %76

76:                                               ; preds = %75
  br label %77

77:                                               ; preds = %76, %56
  %78 = load ptr, ptr %13, align 8
  %79 = call ptr @GETSTRUCT(ptr noundef %78)
  store ptr %79, ptr %15, align 8
  store i8 0, ptr %16, align 1
  %80 = load ptr, ptr %15, align 8
  %81 = getelementptr inbounds nuw %struct.FormData_pg_class, ptr %80, i32 0, i32 13
  %82 = load i8, ptr %81, align 4, !range !4, !noundef !5
  %83 = trunc i8 %82 to i1
  %84 = zext i1 %83 to i32
  %85 = load i8, ptr %5, align 1, !range !4, !noundef !5
  %86 = trunc i8 %85 to i1
  %87 = zext i1 %86 to i32
  %88 = icmp ne i32 %84, %87
  br i1 %88, label %89, label %95

89:                                               ; preds = %77
  %90 = load i8, ptr %5, align 1, !range !4, !noundef !5
  %91 = trunc i8 %90 to i1
  %92 = load ptr, ptr %15, align 8
  %93 = getelementptr inbounds nuw %struct.FormData_pg_class, ptr %92, i32 0, i32 13
  %94 = zext i1 %91 to i8
  store i8 %94, ptr %93, align 4
  store i8 1, ptr %16, align 1
  br label %95

95:                                               ; preds = %89, %77
  %96 = load i8, ptr %7, align 1, !range !4, !noundef !5
  %97 = trunc i8 %96 to i1
  br i1 %97, label %98, label %131

98:                                               ; preds = %95
  %99 = load ptr, ptr %15, align 8
  %100 = getelementptr inbounds nuw %struct.FormData_pg_class, ptr %99, i32 0, i32 9
  %101 = load i32, ptr %100, align 4
  %102 = load i32, ptr %8, align 4
  %103 = icmp ne i32 %101, %102
  br i1 %103, label %104, label %108

104:                                              ; preds = %98
  %105 = load i32, ptr %8, align 4
  %106 = load ptr, ptr %15, align 8
  %107 = getelementptr inbounds nuw %struct.FormData_pg_class, ptr %106, i32 0, i32 9
  store i32 %105, ptr %107, align 4
  store i8 1, ptr %16, align 1
  br label %108

108:                                              ; preds = %104, %98
  %109 = load ptr, ptr %15, align 8
  %110 = getelementptr inbounds nuw %struct.FormData_pg_class, ptr %109, i32 0, i32 10
  %111 = load float, ptr %110, align 4
  %112 = load double, ptr %6, align 8
  %113 = fptrunc double %112 to float
  %114 = fcmp une float %111, %113
  br i1 %114, label %115, label %120

115:                                              ; preds = %108
  %116 = load double, ptr %6, align 8
  %117 = fptrunc double %116 to float
  %118 = load ptr, ptr %15, align 8
  %119 = getelementptr inbounds nuw %struct.FormData_pg_class, ptr %118, i32 0, i32 10
  store float %117, ptr %119, align 4
  store i8 1, ptr %16, align 1
  br label %120

120:                                              ; preds = %115, %108
  %121 = load ptr, ptr %15, align 8
  %122 = getelementptr inbounds nuw %struct.FormData_pg_class, ptr %121, i32 0, i32 11
  %123 = load i32, ptr %122, align 4
  %124 = load i32, ptr %9, align 4
  %125 = icmp ne i32 %123, %124
  br i1 %125, label %126, label %130

126:                                              ; preds = %120
  %127 = load i32, ptr %9, align 4
  %128 = load ptr, ptr %15, align 8
  %129 = getelementptr inbounds nuw %struct.FormData_pg_class, ptr %128, i32 0, i32 11
  store i32 %127, ptr %129, align 4
  store i8 1, ptr %16, align 1
  br label %130

130:                                              ; preds = %126, %120
  br label %131

131:                                              ; preds = %130, %95
  %132 = load i8, ptr %16, align 1, !range !4, !noundef !5
  %133 = trunc i8 %132 to i1
  br i1 %133, label %134, label %137

134:                                              ; preds = %131
  %135 = load ptr, ptr %14, align 8
  %136 = load ptr, ptr %13, align 8
  call void @systable_inplace_update_finish(ptr noundef %135, ptr noundef %136)
  br label %140

137:                                              ; preds = %131
  %138 = load ptr, ptr %14, align 8
  call void @systable_inplace_update_cancel(ptr noundef %138)
  %139 = load ptr, ptr %13, align 8
  call void @CacheInvalidateRelcacheByTuple(ptr noundef %139)
  br label %140

140:                                              ; preds = %137, %134
  %141 = load ptr, ptr %13, align 8
  call void @heap_freetuple(ptr noundef %141)
  %142 = load ptr, ptr %11, align 8
  call void @table_close(ptr noundef %142, i32 noundef 3)
  call void @llvm.lifetime.end.p0(i64 1, ptr %16) #8
  call void @llvm.lifetime.end.p0(i64 8, ptr %15) #8
  call void @llvm.lifetime.end.p0(i64 8, ptr %14) #8
  call void @llvm.lifetime.end.p0(i64 8, ptr %13) #8
  call void @llvm.lifetime.end.p0(i64 72, ptr %12) #8
  call void @llvm.lifetime.end.p0(i64 8, ptr %11) #8
  call void @llvm.lifetime.end.p0(i64 4, ptr %10) #8
  call void @llvm.lifetime.end.p0(i64 4, ptr %9) #8
  call void @llvm.lifetime.end.p0(i64 4, ptr %8) #8
  call void @llvm.lifetime.end.p0(i64 1, ptr %7) #8
  ret void
}