; Function Attrs: nounwind uwtable
define internal fastcc void @index_update_stats(ptr noundef %0, i1 noundef zeroext %1, double noundef %2) unnamed_addr #0 {
  %4 = alloca i32, align 4
  %5 = alloca [1 x %struct.ScanKeyData], align 16
  %6 = alloca ptr, align 8
  %7 = alloca ptr, align 8
  %8 = zext i1 %1 to i8
  call void @llvm.lifetime.start.p0(i64 4, ptr nonnull %4) #11
  store i32 0, ptr %4, align 4
  %9 = getelementptr inbounds nuw i8, ptr %0, i64 72
  %10 = load i32, ptr %9, align 8
  call void @llvm.lifetime.start.p0(i64 72, ptr nonnull %5) #11
  call void @llvm.lifetime.start.p0(i64 8, ptr nonnull %6) #11
  call void @llvm.lifetime.start.p0(i64 8, ptr nonnull %7) #11
  %11 = fcmp oeq double %2, 0.000000e+00
  br i1 %11, label %12, label %18

12:                                               ; preds = %3
  %13 = getelementptr inbounds nuw i8, ptr %0, i64 56
  %14 = load ptr, ptr %13, align 8
  %15 = getelementptr inbounds nuw i8, ptr %14, i64 100
  %16 = load float, ptr %15, align 4
  %17 = fcmp olt float %16, 0.000000e+00
  br i1 %17, label %.thread, label %18

18:                                               ; preds = %12, %3
  %19 = fcmp ult double %2, 0.000000e+00
  %20 = load i8, ptr @IsBinaryUpgrade, align 1, !range !4
  %21 = trunc nuw i8 %20 to i1
  %.not34 = select i1 %19, i1 true, i1 %21
  br i1 %.not34, label %.thread, label %22

22:                                               ; preds = %18
  %23 = tail call i32 @RelationGetNumberOfBlocksInFork(ptr noundef nonnull %0, i32 noundef 0) #11
  %24 = getelementptr inbounds nuw i8, ptr %0, i64 56
  %25 = load ptr, ptr %24, align 8
  %26 = getelementptr inbounds nuw i8, ptr %25, i64 115
  %27 = load i8, ptr %26, align 1
  %.not = icmp eq i8 %27, 105
  br i1 %.not, label %.thread, label %28

28:                                               ; preds = %22
  call void @visibilitymap_count(ptr noundef nonnull %0, ptr noundef nonnull %4, ptr noundef null) #11
  br label %.thread

.thread:                                          ; preds = %12, %22, %28, %18
  %.not3442 = phi i1 [ false, %28 ], [ false, %22 ], [ true, %18 ], [ true, %12 ]
  %.02741 = phi double [ %2, %28 ], [ %2, %22 ], [ %2, %18 ], [ -1.000000e+00, %12 ]
  %.028 = phi i32 [ %23, %28 ], [ %23, %22 ], [ 0, %18 ], [ 0, %12 ]
  %29 = call ptr @table_open(i32 noundef 1259, i32 noundef 3) #11
  %30 = zext i32 %10 to i64
  call void @ScanKeyInit(ptr noundef nonnull %5, i16 noundef signext 1, i16 noundef zeroext 3, i32 noundef 184, i64 noundef %30) #11
  call void @systable_inplace_update_begin(ptr noundef %29, i32 noundef 2662, i1 noundef zeroext true, ptr noundef null, i32 noundef 1, ptr noundef nonnull %5, ptr noundef nonnull %6, ptr noundef nonnull %7) #11
  %31 = load ptr, ptr %6, align 8
  %.not35 = icmp eq ptr %31, null
  br i1 %.not35, label %32, label %35

32:                                               ; preds = %.thread
  %33 = call zeroext i1 @errstart_cold(i32 noundef 21, ptr noundef null) #12
  call void @llvm.assume(i1 %33)
  %34 = call i32 (ptr, ...) @errmsg_internal(ptr noundef nonnull @.str.22, i32 noundef %10) #11
  call void @errfinish(ptr noundef nonnull @.str.1, i32 noundef 2896, ptr noundef nonnull @__func__.index_update_stats) #11
  unreachable

35:                                               ; preds = %.thread
  %36 = getelementptr i8, ptr %31, i64 16
  %.val = load ptr, ptr %36, align 8
  %37 = getelementptr inbounds nuw i8, ptr %.val, i64 22
  %38 = load i8, ptr %37, align 2
  %39 = zext i8 %38 to i64
  %40 = getelementptr inbounds nuw i8, ptr %.val, i64 %39
  %41 = getelementptr inbounds nuw i8, ptr %40, i64 112
  %42 = load i8, ptr %41, align 4, !range !4, !noundef !5
  %.not36 = icmp ne i8 %42, %8
  br i1 %.not36, label %43, label %44

43:                                               ; preds = %35
  store i8 %8, ptr %41, align 4
  br label %44

44:                                               ; preds = %43, %35
  br i1 %.not3442, label %59, label %45

45:                                               ; preds = %44
  %46 = getelementptr inbounds nuw i8, ptr %40, i64 96
  %47 = load i32, ptr %46, align 4
  %.not37 = icmp eq i32 %47, %.028
  br i1 %.not37, label %49, label %48

48:                                               ; preds = %45
  store i32 %.028, ptr %46, align 4
  br label %49

49:                                               ; preds = %48, %45
  %.2 = phi i1 [ true, %48 ], [ %.not36, %45 ]
  %50 = getelementptr inbounds nuw i8, ptr %40, i64 100
  %51 = load float, ptr %50, align 4
  %52 = fptrunc double %.02741 to float
  %53 = fcmp une float %51, %52
  br i1 %53, label %54, label %55

54:                                               ; preds = %49
  store float %52, ptr %50, align 4
  br label %55

55:                                               ; preds = %54, %49
  %.3 = phi i1 [ true, %54 ], [ %.2, %49 ]
  %56 = getelementptr inbounds nuw i8, ptr %40, i64 104
  %57 = load i32, ptr %56, align 4
  %58 = load i32, ptr %4, align 4
  %.not38 = icmp eq i32 %57, %58
  br i1 %.not38, label %59, label %.thread43

.thread43:                                        ; preds = %55
  store i32 %58, ptr %56, align 4
  br label %60

59:                                               ; preds = %55, %44
  %.1 = phi i1 [ %.3, %55 ], [ %.not36, %44 ]
  br i1 %.1, label %60, label %63

60:                                               ; preds = %.thread43, %59
  %61 = load ptr, ptr %7, align 8
  %62 = load ptr, ptr %6, align 8
  call void @systable_inplace_update_finish(ptr noundef %61, ptr noundef %62) #11
  br label %66

63:                                               ; preds = %59
  %64 = load ptr, ptr %7, align 8
  call void @systable_inplace_update_cancel(ptr noundef %64) #11
  %65 = load ptr, ptr %6, align 8
  call void @CacheInvalidateRelcacheByTuple(ptr noundef %65) #11
  br label %66

66:                                               ; preds = %63, %60
  %67 = load ptr, ptr %6, align 8
  call void @heap_freetuple(ptr noundef %67) #11
  call void @table_close(ptr noundef %29, i32 noundef 3) #11
  call void @llvm.lifetime.end.p0(i64 8, ptr nonnull %7) #11
  call void @llvm.lifetime.end.p0(i64 8, ptr nonnull %6) #11
  call void @llvm.lifetime.end.p0(i64 72, ptr nonnull %5) #11
  call void @llvm.lifetime.end.p0(i64 4, ptr nonnull %4) #11
  ret void
}